; Function Attrs: noinline nounwind uwtable
define internal i32 @php_array_data_compare_unstable(ptr noundef %0, ptr noundef %1) #16 {
  %3 = tail call i32 @zend_compare(ptr noundef %0, ptr noundef %1) #21
  %4 = getelementptr inbounds nuw i8, ptr %1, i64 8
  %5 = load i8, ptr %4, align 8, !tbaa !8
  %6 = icmp eq i8 %5, 10
  br i1 %6, label %7, label %10, !prof !14

7:                                                ; preds = %2
  %8 = load ptr, ptr %1, align 8, !tbaa !8
  %9 = getelementptr inbounds nuw i8, ptr %8, i64 8
  %.phi.trans.insert = getelementptr inbounds nuw i8, ptr %8, i64 16
  %.pre = load i8, ptr %.phi.trans.insert, align 8, !tbaa !8
  br label %10

10:                                               ; preds = %7, %2
  %11 = phi i8 [ %.pre, %7 ], [ %5, %2 ]
  %.020.i = phi ptr [ %9, %7 ], [ %1, %2 ]
  %12 = icmp eq i8 %11, 8
  br i1 %12, label %13, label %php_array_data_compare_unstable_i.exit, !prof !14

13:                                               ; preds = %10
  %14 = icmp eq i32 %3, 1
  br i1 %14, label %15, label %php_array_data_compare_unstable_i.exit

15:                                               ; preds = %13
  %16 = load ptr, ptr %.020.i, align 8, !tbaa !8
  %17 = getelementptr inbounds nuw i8, ptr %16, i64 16
  %18 = load ptr, ptr %17, align 8, !tbaa !57
  %19 = getelementptr inbounds nuw i8, ptr %18, i64 28
  %20 = load i32, ptr %19, align 4, !tbaa !161
  %21 = and i32 %20, 268435456
  %.not.i = icmp eq i32 %21, 0
  br i1 %.not.i, label %php_array_data_compare_unstable_i.exit, label %22

22:                                               ; preds = %15
  %23 = getelementptr inbounds nuw i8, ptr %0, i64 8
  %24 = load i8, ptr %23, align 8, !tbaa !8
  %25 = icmp eq i8 %24, 10
  br i1 %25, label %26, label %29, !prof !14

26:                                               ; preds = %22
  %27 = load ptr, ptr %0, align 8, !tbaa !8
  %28 = getelementptr inbounds nuw i8, ptr %27, i64 8
  %.phi.trans.insert2 = getelementptr inbounds nuw i8, ptr %27, i64 16
  %.pre3 = load i8, ptr %.phi.trans.insert2, align 8, !tbaa !8
  br label %29

29:                                               ; preds = %26, %22
  %30 = phi i8 [ %.pre3, %26 ], [ %24, %22 ]
  %.021.i = phi ptr [ %28, %26 ], [ %0, %22 ]
  %31 = icmp eq i8 %30, 8
  br i1 %31, label %32, label %php_array_data_compare_unstable_i.exit

32:                                               ; preds = %29
  %33 = load ptr, ptr %.021.i, align 8, !tbaa !8
  %34 = getelementptr inbounds nuw i8, ptr %33, i64 16
  %35 = load ptr, ptr %34, align 8, !tbaa !57
  %36 = getelementptr inbounds nuw i8, ptr %35, i64 28
  %37 = load i32, ptr %36, align 4, !tbaa !161
  %38 = and i32 %37, 268435456
  %.not22.i = icmp eq i32 %38, 0
  br i1 %.not22.i, label %php_array_data_compare_unstable_i.exit, label %39

39:                                               ; preds = %32
  %40 = icmp eq ptr %33, %16
  %41 = icmp ult ptr %33, %16
  %42 = select i1 %41, i32 -1, i32 1
  %43 = select i1 %40, i32 0, i32 %42
  br label %php_array_data_compare_unstable_i.exit

php_array_data_compare_unstable_i.exit:           ; preds = %10, %13, %15, %29, %32, %39
  %.1.i = phi i32 [ %43, %39 ], [ -1, %32 ], [ -1, %29 ], [ 1, %15 ], [ %3, %13 ], [ %3, %10 ]
  ret i32 %.1.i
}